target datalayout = "e-m:e-p270:32:32-p271:32:32-p272:64:64-i64:64-i128:128-f80:128-n8:16:32:64-S128"
target triple = "x86_64-unknown-linux-gnu"

%struct.ArchCPU = type { %struct.CPUState, %struct.CPUArchState, ptr, ptr, %struct.RISCVCPUConfig, ptr, i32, ptr }
%struct.CPUState = type { %struct.DeviceState, ptr, i32, i32, ptr, i32, i8, i8, ptr, i8, i8, i8, i8, i8, i8, i8, i8, i32, i32, i32, i32, i64, i64, i64, [1 x %struct.__jmp_buf_tag], %struct.QemuMutex, %struct.anon, ptr, i32, ptr, ptr, ptr, ptr, i32, i32, %union.anon, %union.anon.0, %union.anon.1, ptr, ptr, i64, i32, ptr, ptr, ptr, i32, i64, i32, %struct.QemuLockCnt, [1 x i64], ptr, i32, i32, i32, i32, i32, ptr, i8, i8, i64, i8, i8, ptr, [8 x i8], [0 x i8], %struct.CPUNegativeOffsetState }
%struct.DeviceState = type { %struct.Object, ptr, ptr, i8, i8, i64, ptr, i32, i8, ptr, %struct.NamedGPIOListHead, %struct.NamedClockListHead, %struct.BusStateHead, i32, i32, i32, %struct.ResettableState, ptr, %struct.MemReentrancyGuard }
%struct.Object = type { ptr, ptr, ptr, i32, ptr }
%struct.NamedGPIOListHead = type { ptr }
%struct.NamedClockListHead = type { ptr }
%struct.BusStateHead = type { ptr }
%struct.ResettableState = type { i32, i8, i8 }
%struct.MemReentrancyGuard = type { i8 }
%struct.__jmp_buf_tag = type { [8 x i64], i32, %struct.__sigset_t }
%struct.__sigset_t = type { [16 x i64] }
%struct.QemuMutex = type { %union.pthread_mutex_t, i8 }
%union.pthread_mutex_t = type { %struct.__pthread_mutex_s }
%struct.__pthread_mutex_s = type { i32, i32, i32, i32, i32, i16, i16, %struct.__pthread_internal_list }
%struct.__pthread_internal_list = type { ptr, ptr }
%struct.anon = type { ptr, ptr }
%union.anon = type { %struct.QTailQLink }
%struct.QTailQLink = type { ptr, ptr }
%union.anon.0 = type { %struct.QTailQLink }
%union.anon.1 = type { %struct.QTailQLink }
%struct.QemuLockCnt = type { i32 }
%struct.CPUNegativeOffsetState = type { %struct.CPUTLB, %union.IcountDecr, i8, [11 x i8] }
%struct.CPUTLB = type { %struct.CPUTLBCommon, [16 x %struct.CPUTLBDesc], [16 x %struct.CPUTLBDescFast] }
%struct.CPUTLBCommon = type { %struct.QemuSpin, i16, i64, i64, i64 }
%struct.QemuSpin = type { i32 }
%struct.CPUTLBDesc = type { i64, i64, i64, i64, i64, i64, [8 x %union.CPUTLBEntry], [8 x %struct.CPUTLBEntryFull], ptr }
%union.CPUTLBEntry = type { %struct.anon.2 }
%struct.anon.2 = type { i64, i64, i64, i64 }
%struct.CPUTLBEntryFull = type { i64, i64, %struct.MemTxAttrs, i8, i8, [3 x i8], %union.anon.3 }
%struct.MemTxAttrs = type { i32 }
%union.anon.3 = type { %struct.anon.4 }
%struct.anon.4 = type { i8, i8, i8 }
%struct.CPUTLBDescFast = type { i64, ptr }
%union.IcountDecr = type { i32 }
%struct.CPUArchState = type { [32 x i64], [32 x i64], [512 x i64], i64, i64, i64, i64, i64, i8, i64, i64, i64, [32 x i64], i64, %struct.float_status, i64, i64, i64, i64, i64, i64, i32, i32, i32, i32, i32, i64, i64, i32, i64, i64, ptr, ptr, i8, i64, i64, [8 x i8] }
%struct.float_status = type { i16, i8, i8, i8, i8, i8, i8, i8, i8, i8, i8, i8 }
%struct.RISCVCPUConfig = type { i8, i8, i8, i8, i8, i8, i8, i8, i8, i8, i8, i8, i8, i8, i8, i8, i8, i8, i8, i8, i8, i8, i8, i8, i8, i8, i8, i8, i8, i8, i8, i8, i8, i8, i8, i8, i8, i8, i8, i8, i8, i8, i8, i8, i8, i8, i8, i8, i8, i8, i8, i8, i8, i8, i8, i8, i8, i8, i8, i8, i8, i8, i8, i8, i8, i8, i8, i8, i8, i8, i8, i8, i8, i8, i8, i8, i8, i8, i32, i64, i64, i8, i8, i8, i8, i8, i8, i8, i8, i8, i8, i8, i8, i32, ptr, ptr, ptr, ptr, i16, i16, i16, i16, i8, i8, i8, i8, i8 }

@.str.250 = private unnamed_addr constant [10 x i8] c"riscv-cpu\00", align 1
@.str.282 = private unnamed_addr constant [31 x i8] c"../qemu/target/riscv/cpu-qom.h\00", align 1
@__func__.RISCV_CPU = private unnamed_addr constant [10 x i8] c"RISCV_CPU\00", align 1

; Function Attrs: nounwind sspstrong uwtable
define dso_local void @riscv_cpu_set_misa(ptr noundef %env, i32 noundef %mxl, i32 noundef %ext) #0 {
entry:
  %env.addr = alloca ptr, align 8
  %mxl.addr = alloca i32, align 4
  %ext.addr = alloca i32, align 4
  store ptr %env, ptr %env.addr, align 8
  store i32 %mxl, ptr %mxl.addr, align 4
  store i32 %ext, ptr %ext.addr, align 4
  %0 = load i32, ptr %mxl.addr, align 4
  %1 = load ptr, ptr %env.addr, align 8
  %misa_mxl = getelementptr inbounds %struct.CPUArchState, ptr %1, i32 0, i32 21
  store i32 %0, ptr %misa_mxl, align 16
  %2 = load ptr, ptr %env.addr, align 8
  %misa_mxl_max = getelementptr inbounds %struct.CPUArchState, ptr %2, i32 0, i32 22
  store i32 %0, ptr %misa_mxl_max, align 4
  %3 = load i32, ptr %ext.addr, align 4
  %4 = load ptr, ptr %env.addr, align 8
  %misa_ext = getelementptr inbounds %struct.CPUArchState, ptr %4, i32 0, i32 23
  store i32 %3, ptr %misa_ext, align 8
  %5 = load ptr, ptr %env.addr, align 8
  %misa_ext_mask = getelementptr inbounds %struct.CPUArchState, ptr %5, i32 0, i32 24
  store i32 %3, ptr %misa_ext_mask, align 4
  ret void
}

; Function Attrs: nounwind sspstrong uwtable
define internal ptr @RISCV_CPU(ptr noundef %obj) #0 {
entry:
  %obj.addr = alloca ptr, align 8
  store ptr %obj, ptr %obj.addr, align 8
  %0 = load ptr, ptr %obj.addr, align 8
  %call = call ptr @object_dynamic_cast_assert(ptr noundef %0, ptr noundef @.str.250, ptr noundef @.str.282, i32 noundef 46, ptr noundef @__func__.RISCV_CPU)
  ret ptr %call
}

; Function Attrs: nounwind sspstrong uwtable
define internal void @riscv_any_cpu_init(ptr noundef %obj) #0 {
entry:
  %obj.addr = alloca ptr, align 8
  %cpu = alloca ptr, align 8
  %env = alloca ptr, align 8
  store ptr %obj, ptr %obj.addr, align 8
  %0 = load ptr, ptr %obj.addr, align 8
  %call = call ptr @RISCV_CPU(ptr noundef %0)
  store ptr %call, ptr %cpu, align 8
  %1 = load ptr, ptr %cpu, align 8
  %env1 = getelementptr inbounds %struct.ArchCPU, ptr %1, i32 0, i32 1
  store ptr %env1, ptr %env, align 8
  %2 = load ptr, ptr %env, align 8
  call void @riscv_cpu_set_misa(ptr noundef %2, i32 noundef 2, i32 noundef 1052973)
  %3 = load ptr, ptr %env, align 8
  %priv_ver = getelementptr inbounds %struct.CPUArchState, ptr %3, i32 0, i32 18
  store i64 2, ptr %priv_ver, align 8
  %4 = load ptr, ptr %cpu, align 8
  %cfg = getelementptr inbounds %struct.ArchCPU, ptr %4, i32 0, i32 4
  %ext_zifencei = getelementptr inbounds %struct.RISCVCPUConfig, ptr %cfg, i32 0, i32 24
  store i8 1, ptr %ext_zifencei, align 8
  %5 = load ptr, ptr %cpu, align 8
  %cfg2 = getelementptr inbounds %struct.ArchCPU, ptr %5, i32 0, i32 4
  %ext_zicsr = getelementptr inbounds %struct.RISCVCPUConfig, ptr %cfg2, i32 0, i32 26
  store i8 1, ptr %ext_zicsr, align 2
  %6 = load ptr, ptr %cpu, align 8
  %cfg3 = getelementptr inbounds %struct.ArchCPU, ptr %6, i32 0, i32 4
  %mmu = getelementptr inbounds %struct.RISCVCPUConfig, ptr %cfg3, i32 0, i32 102
  store i8 1, ptr %mmu, align 16
  %7 = load ptr, ptr %cpu, align 8
  %cfg4 = getelementptr inbounds %struct.ArchCPU, ptr %7, i32 0, i32 4
  %pmp = getelementptr inbounds %struct.RISCVCPUConfig, ptr %cfg4, i32 0, i32 103
  store i8 1, ptr %pmp, align 1
  ret void
}